target datalayout = "e-m:e-p270:32:32-p271:32:32-p272:64:64-i64:64-i128:128-f80:128-n8:16:32:64-S128"
target triple = "x86_64-pc-linux-gnu"

%struct.PJconsts = type { ptr, ptr, ptr, ptr, ptr, ptr, ptr, ptr, ptr, ptr, ptr, ptr, i32, ptr, ptr, ptr, ptr, ptr, ptr, ptr, ptr, double, double, double, double, double, double, double, double, double, double, double, double, double, double, double, double, double, double, double, double, double, double, i32, i32, i32, i32, i32, i32, i32, i32, i32, i32, i32, ptr, ptr, ptr, ptr, ptr, ptr, double, double, double, double, double, double, double, double, double, double, double, i32, [7 x double], i32, ptr, ptr, double, double, i32, [4 x i8], %"class.std::shared_ptr", i8, double, i8, %"class.std::__cxx11::basic_string", %"class.std::__cxx11::basic_string", %"class.std::__cxx11::basic_string", i8, %"class.std::vector", i32, %"class.std::vector.3", i32, i8, i8, i8, ptr }
%"class.std::shared_ptr" = type { %"class.std::__shared_ptr" }
%"class.std::__shared_ptr" = type { ptr, %"class.std::__shared_count" }
%"class.std::__shared_count" = type { ptr }
%"class.std::__cxx11::basic_string" = type { %"struct.std::__cxx11::basic_string<char>::_Alloc_hider", i64, %union.anon }
%"struct.std::__cxx11::basic_string<char>::_Alloc_hider" = type { ptr }
%union.anon = type { i64, [8 x i8] }
%"class.std::vector" = type { %"struct.std::_Vector_base" }
%"struct.std::_Vector_base" = type { %"struct.std::_Vector_base<osgeo::proj::operation::GridDescription, std::allocator<osgeo::proj::operation::GridDescription>>::_Vector_impl" }
%"struct.std::_Vector_base<osgeo::proj::operation::GridDescription, std::allocator<osgeo::proj::operation::GridDescription>>::_Vector_impl" = type { %"struct.std::_Vector_base<osgeo::proj::operation::GridDescription, std::allocator<osgeo::proj::operation::GridDescription>>::_Vector_impl_data" }
%"struct.std::_Vector_base<osgeo::proj::operation::GridDescription, std::allocator<osgeo::proj::operation::GridDescription>>::_Vector_impl_data" = type { ptr, ptr, ptr }
%"class.std::vector.3" = type { %"struct.std::_Vector_base.4" }
%"struct.std::_Vector_base.4" = type { %"struct.std::_Vector_base<PJCoordOperation, std::allocator<PJCoordOperation>>::_Vector_impl" }
%"struct.std::_Vector_base<PJCoordOperation, std::allocator<PJCoordOperation>>::_Vector_impl" = type { %"struct.std::_Vector_base<PJCoordOperation, std::allocator<PJCoordOperation>>::_Vector_impl_data" }
%"struct.std::_Vector_base<PJCoordOperation, std::allocator<PJCoordOperation>>::_Vector_impl_data" = type { ptr, ptr, ptr }
%"struct.(anonymous namespace)::pj_eqearth" = type { double, double, ptr }

; Function Attrs: mustprogress uwtable
define internal noundef ptr @_ZL10destructorP8PJconstsi(ptr noundef %0, i32 noundef %1) #0 {
  %3 = alloca ptr, align 8
  %4 = alloca ptr, align 8
  %5 = alloca i32, align 4
  store ptr %0, ptr %4, align 8, !tbaa !3
  store i32 %1, ptr %5, align 4, !tbaa !55
  %6 = load ptr, ptr %4, align 8, !tbaa !3
  %7 = icmp eq ptr null, %6
  br i1 %7, label %8, label %9

8:                                                ; preds = %2
  store ptr null, ptr %3, align 8
  br label %27

9:                                                ; preds = %2
  %10 = load ptr, ptr %4, align 8, !tbaa !3
  %11 = getelementptr inbounds nuw %struct.PJconsts, ptr %10, i32 0, i32 11
  %12 = load ptr, ptr %11, align 8, !tbaa !43
  %13 = icmp eq ptr null, %12
  br i1 %13, label %14, label %18

14:                                               ; preds = %9
  %15 = load ptr, ptr %4, align 8, !tbaa !3
  %16 = load i32, ptr %5, align 4, !tbaa !55
  %17 = call noundef ptr @_Z21pj_default_destructorP8PJconstsi(ptr noundef %15, i32 noundef %16)
  store ptr %17, ptr %3, align 8
  br label %27

18:                                               ; preds = %9
  %19 = load ptr, ptr %4, align 8, !tbaa !3
  %20 = getelementptr inbounds nuw %struct.PJconsts, ptr %19, i32 0, i32 11
  %21 = load ptr, ptr %20, align 8, !tbaa !43
  %22 = getelementptr inbounds nuw %"struct.(anonymous namespace)::pj_eqearth", ptr %21, i32 0, i32 2
  %23 = load ptr, ptr %22, align 8, !tbaa !51
  call void @free(ptr noundef %23) #7
  %24 = load ptr, ptr %4, align 8, !tbaa !3
  %25 = load i32, ptr %5, align 4, !tbaa !55
  %26 = call noundef ptr @_Z21pj_default_destructorP8PJconstsi(ptr noundef %24, i32 noundef %25)
  store ptr %26, ptr %3, align 8
  br label %27

27:                                               ; preds = %18, %14, %8
  %28 = load ptr, ptr %3, align 8
  ret ptr %28
}

; Function Attrs: mustprogress uwtable
define hidden noundef ptr @_Z36pj_projection_specific_setup_eqearthP8PJconsts(ptr noundef %0) #0 {
  %2 = alloca ptr, align 8
  %3 = alloca ptr, align 8
  %4 = alloca ptr, align 8
  %5 = alloca i32, align 4
  store ptr %0, ptr %3, align 8, !tbaa !3
  call void @llvm.lifetime.start.p0(i64 8, ptr %4) #7
  %6 = call noalias ptr @calloc(i64 noundef 1, i64 noundef 24) #8
  store ptr %6, ptr %4, align 8, !tbaa !41
  %7 = load ptr, ptr %4, align 8, !tbaa !41
  %8 = icmp eq ptr null, %7
  br i1 %8, label %9, label %12

9:                                                ; preds = %1
  %10 = load ptr, ptr %3, align 8, !tbaa !3
  %11 = call noundef ptr @_Z21pj_default_destructorP8PJconstsi(ptr noundef %10, i32 noundef 4096)
  store ptr %11, ptr %2, align 8
  store i32 1, ptr %5, align 4
  br label %61

12:                                               ; preds = %1
  %13 = load ptr, ptr %4, align 8, !tbaa !41
  %14 = load ptr, ptr %3, align 8, !tbaa !3
  %15 = getelementptr inbounds nuw %struct.PJconsts, ptr %14, i32 0, i32 11
  store ptr %13, ptr %15, align 8, !tbaa !43
  %16 = load ptr, ptr %3, align 8, !tbaa !3
  %17 = getelementptr inbounds nuw %struct.PJconsts, ptr %16, i32 0, i32 19
  store ptr @_ZL10destructorP8PJconstsi, ptr %17, align 8, !tbaa !44
  %18 = load ptr, ptr %3, align 8, !tbaa !3
  %19 = getelementptr inbounds nuw %struct.PJconsts, ptr %18, i32 0, i32 13
  store ptr @_ZL17eqearth_e_forward5PJ_LPP8PJconsts, ptr %19, align 8, !tbaa !45
  %20 = load ptr, ptr %3, align 8, !tbaa !3
  %21 = getelementptr inbounds nuw %struct.PJconsts, ptr %20, i32 0, i32 14
  store ptr @_ZL17eqearth_e_inverse5PJ_XYP8PJconsts, ptr %21, align 8, !tbaa !46
  %22 = load ptr, ptr %4, align 8, !tbaa !41
  %23 = getelementptr inbounds nuw %"struct.(anonymous namespace)::pj_eqearth", ptr %22, i32 0, i32 1
  store double 1.000000e+00, ptr %23, align 8, !tbaa !47
  %24 = load ptr, ptr %3, align 8, !tbaa !3
  %25 = getelementptr inbounds nuw %struct.PJconsts, ptr %24, i32 0, i32 27
  %26 = load double, ptr %25, align 8, !tbaa !50
  %27 = fcmp une double %26, 0.000000e+00
  br i1 %27, label %28, label %59

28:                                               ; preds = %12
  %29 = load ptr, ptr %3, align 8, !tbaa !3
  %30 = getelementptr inbounds nuw %struct.PJconsts, ptr %29, i32 0, i32 27
  %31 = load double, ptr %30, align 8, !tbaa !50
  %32 = call noundef ptr @_Z10pj_authsetd(double noundef %31)
  %33 = load ptr, ptr %4, align 8, !tbaa !41
  %34 = getelementptr inbounds nuw %"struct.(anonymous namespace)::pj_eqearth", ptr %33, i32 0, i32 2
  store ptr %32, ptr %34, align 8, !tbaa !51
  %35 = load ptr, ptr %4, align 8, !tbaa !41
  %36 = getelementptr inbounds nuw %"struct.(anonymous namespace)::pj_eqearth", ptr %35, i32 0, i32 2
  %37 = load ptr, ptr %36, align 8, !tbaa !51
  %38 = icmp eq ptr null, %37
  br i1 %38, label %39, label %42

39:                                               ; preds = %28
  %40 = load ptr, ptr %3, align 8, !tbaa !3
  %41 = call noundef ptr @_ZL10destructorP8PJconstsi(ptr noundef %40, i32 noundef 4096)
  store ptr %41, ptr %2, align 8
  store i32 1, ptr %5, align 4
  br label %61

42:                                               ; preds = %28
  %43 = load ptr, ptr %3, align 8, !tbaa !3
  %44 = getelementptr inbounds nuw %struct.PJconsts, ptr %43, i32 0, i32 26
  %45 = load double, ptr %44, align 8, !tbaa !52
  %46 = load ptr, ptr %3, align 8, !tbaa !3
  %47 = getelementptr inbounds nuw %struct.PJconsts, ptr %46, i32 0, i32 32
  %48 = load double, ptr %47, align 8, !tbaa !53
  %49 = call noundef double @_Z7pj_qsfnddd(double noundef 1.000000e+00, double noundef %45, double noundef %48)
  %50 = load ptr, ptr %4, align 8, !tbaa !41
  %51 = getelementptr inbounds nuw %"struct.(anonymous namespace)::pj_eqearth", ptr %50, i32 0, i32 0
  store double %49, ptr %51, align 8, !tbaa !54
  %52 = load ptr, ptr %4, align 8, !tbaa !41
  %53 = getelementptr inbounds nuw %"struct.(anonymous namespace)::pj_eqearth", ptr %52, i32 0, i32 0
  %54 = load double, ptr %53, align 8, !tbaa !54
  %55 = fmul double 5.000000e-01, %54
  %56 = call double @sqrt(double noundef %55) #7, !tbaa !55
  %57 = load ptr, ptr %4, align 8, !tbaa !41
  %58 = getelementptr inbounds nuw %"struct.(anonymous namespace)::pj_eqearth", ptr %57, i32 0, i32 1
  store double %56, ptr %58, align 8, !tbaa !47
  br label %59

59:                                               ; preds = %42, %12
  %60 = load ptr, ptr %3, align 8, !tbaa !3
  store ptr %60, ptr %2, align 8
  store i32 1, ptr %5, align 4
  br label %61

61:                                               ; preds = %59, %39, %9
  call void @llvm.lifetime.end.p0(i64 8, ptr %4) #7
  %62 = load ptr, ptr %2, align 8
  ret ptr %62
}