; Function Attrs: mustprogress uwtable
define hidden noundef ptr @_Z36pj_projection_specific_setup_eqearthP8PJconsts(ptr noundef %0) local_unnamed_addr #0 {
  %2 = tail call noalias dereferenceable_or_null(24) ptr @calloc(i64 noundef 1, i64 noundef 24) #6
  %3 = icmp eq ptr %2, null
  br i1 %3, label %4, label %6

4:                                                ; preds = %1
  %5 = tail call noundef ptr @_Z21pj_default_destructorP8PJconstsi(ptr noundef %0, i32 noundef 4096)
  br label %34

6:                                                ; preds = %1
  %7 = getelementptr inbounds nuw i8, ptr %0, i64 88
  store ptr %2, ptr %7, align 8, !tbaa !40
  %8 = getelementptr inbounds nuw i8, ptr %0, i64 152
  store ptr @_ZL10destructorP8PJconstsi, ptr %8, align 8, !tbaa !41
  %9 = getelementptr inbounds nuw i8, ptr %0, i64 104
  store ptr @_ZL17eqearth_e_forward5PJ_LPP8PJconsts, ptr %9, align 8, !tbaa !42
  %10 = getelementptr inbounds nuw i8, ptr %0, i64 112
  store ptr @_ZL17eqearth_e_inverse5PJ_XYP8PJconsts, ptr %10, align 8, !tbaa !43
  %11 = getelementptr inbounds nuw i8, ptr %2, i64 8
  store double 1.000000e+00, ptr %11, align 8, !tbaa !44
  %12 = getelementptr inbounds nuw i8, ptr %0, i64 216
  %13 = load double, ptr %12, align 8, !tbaa !47
  %14 = fcmp une double %13, 0.000000e+00
  br i1 %14, label %15, label %34

15:                                               ; preds = %6
  %16 = tail call noundef ptr @_Z10pj_authsetd(double noundef %13)
  %17 = getelementptr inbounds nuw i8, ptr %2, i64 16
  store ptr %16, ptr %17, align 8, !tbaa !48
  %18 = icmp eq ptr %16, null
  br i1 %18, label %19, label %26

19:                                               ; preds = %15
  %20 = load ptr, ptr %7, align 8, !tbaa !40
  %21 = icmp eq ptr %20, null
  br i1 %21, label %_ZL10destructorP8PJconstsi.exit, label %22

22:                                               ; preds = %19
  %23 = getelementptr inbounds nuw i8, ptr %20, i64 16
  %24 = load ptr, ptr %23, align 8, !tbaa !48
  tail call void @free(ptr noundef %24) #7
  br label %_ZL10destructorP8PJconstsi.exit

_ZL10destructorP8PJconstsi.exit:                  ; preds = %19, %22
  %25 = tail call noundef ptr @_Z21pj_default_destructorP8PJconstsi(ptr noundef nonnull %0, i32 noundef 4096)
  br label %34

26:                                               ; preds = %15
  %27 = getelementptr inbounds nuw i8, ptr %0, i64 208
  %28 = load double, ptr %27, align 8, !tbaa !49
  %29 = getelementptr inbounds nuw i8, ptr %0, i64 256
  %30 = load double, ptr %29, align 8, !tbaa !50
  %31 = tail call noundef double @_Z7pj_qsfnddd(double noundef 1.000000e+00, double noundef %28, double noundef %30)
  store double %31, ptr %2, align 8, !tbaa !51
  %32 = fmul double %31, 5.000000e-01
  %33 = tail call double @sqrt(double noundef %32) #7, !tbaa !52
  store double %33, ptr %11, align 8, !tbaa !44
  br label %34

34:                                               ; preds = %6, %26, %_ZL10destructorP8PJconstsi.exit, %4
  %.0 = phi ptr [ %5, %4 ], [ %25, %_ZL10destructorP8PJconstsi.exit ], [ %0, %26 ], [ %0, %6 ]
  ret ptr %.0
}